(dp1
(S'a1'
p2
I168
tp3
S'CT-M168'
p4
s(S'e1'
p5
I233
tp6
S'R1-M173'
p7
s(S'c'
I10
tp8
S'K-M9'
p9
s(g2
I187
tp10
S'A1a-M31'
p11
s(S'd1'
p12
I269
tp13
S'K2a1-M2313'
p14
s(g12
I344
tp15
S'J2a-M410'
p16
s(S'c'
I130
tp17
S'J2a-M410'
p18
s(g12
I341
tp19
S'J2b-M12'
p20
s(S'b'
I174
tp21
S'CF-P143'
p22
s(S'a2'
p23
I594
tp24
S'E1b1-P179'
p25
s(S'e2'
p26
I442
tp27
S'R-M207'
p28
s(g2
I27
tp29
S'C3-P44'
p30
s(g2
I181
tp31
S'B-M181'
p32
s(g26
I439
tp33
S'R1a1a1b2-Z93'
p34
s(S'd2'
p35
I250
tp36
S'K2-M526'
p37
s(g12
I285
tp38
S'T-M184'
p39
s(S'b'
I173
tp40
S'C1-M8'
p41
s(g23
I593
tp42
S'E1b1b1-M35'
p43
s(g12
I15
tp44
S'O3-M122'
p45
s(S'c'
I163
tp46
S'E2-M75'
p47
s(g2
I175
tp48
S'B2-M182'
p49
s(g26
I441
tp50
S'R1-M173'
p51
s(S'c'
I4
tp52
S'T-M184'
p53
s(g12
I266
tp54
S'N-M231'
p55
s(g12
I338
tp56
S'L-M11'
p57
s(g2
I62
tp58
S'C5-M356'
p59
s(S'c'
I257
tp60
S'IJ-M429'
p61
s(S'b'
I168
tp62
S'F-M89'
p63
s(S'b'
I127
tp64
S'H-M2713'
p65
s(g2
I84
tp66
S'E1b1a1a1-M180'
p67
s(S'c'
I47
tp68
S'J2b2-M241'
p69
s(S'b'
I7
tp70
S'H2-Apt'
p71
s(g23
I522
tp72
S'E1b1a1-M2'
p73
s(g5
I229
tp74
S'R1a1a1b1a-Z282'
p75
s(g12
I339
tp76
S'LT-P326'
p77
s(g35
I241
tp78
S'O1a-F589'
p79
s(S'c'
I9
tp80
S'N-M231'
p81
s(g23
I575
tp82
S'E1b1b1a1c-V22'
p83
s(g26
I4
tp84
S'R2a-M124'
p85
s(g2
I125
tp86
S'E1a-M33'
p87
s(g5
I214
tp88
S'R1a1a1b2-Z93'
p89
s(S'c'
I258
tp90
S'IJK-M523'
p91
s(g2
I81
tp92
S'E2-M75'
p93
s(g2
I166
tp94
S'D2-M55'
p95
s(S'b'
I2
tp96
S'K-M9'
p97
s(g12
I164
tp98
S'O2-M268'
p99
s(g5
I234
tp100
S'R-M207'
p101
s(g2
I188
tp102
S'A1-V168'
p103
s(g5
I322
tp104
S'Q1a-F903'
p105
s(S'c'
I131
tp106
S'J2-M172'
p107
s(g2
I71
tp108
S'C-M130'
p109
s(g23
I557
tp110
S'E1b1b1b1a2-M183'
p111
s(g12
I340
tp112
S'K-M9'
p113
s(g35
I236
tp114
S'O2-M268'
p115
s(S'c'
I263
tp116
S'H1-M52'
p117
s(S'c'
I83
tp118
S'J2a1b-M67'
p119
s(g12
I4
tp120
S'R1b1a2a1a-L11'
p121
s(S'c'
I241
tp122
S'E1-P147'
p123
s(g12
I345
tp124
S'J2-M172'
p125
s(g2
I182
tp126
S'BT-M42'
p127
s(g5
I239
tp128
S'Q1b-L612'
p129
s(S'c'
I194
tp130
S'I2-M438'
p131
s(S'c'
I49
tp132
S'J2b-M12'
p133
s(g2
I69
tp134
S'C1-M8'
p135
s(S'c'
I264
tp136
S'HIJK-M578'
p137
s(S'b'
I161
tp138
S'G2-L156'
p139
s(g26
I431
tp140
S'R1b1a2-M269'
p141
s(S'c'
I160
tp142
S'J1-M267'
p143
s(S'b'
I178
tp144
S'E1b1a1a1-M180'
p145
s(g26
I440
tp146
S'R1a1a1-M417'
p147
s(g35
I248
tp148
S'N-M231'
p149
s(g12
I203
tp150
S'O-P186'
p151
s(g5
I324
tp152
S'P-M45'
p153
s(g23
I496
tp154
S'E1b1a1a1-M180'
p155
s(g23
I536
tp156
S'E1b1b1b2a-M123'
p157
s(g2
I85
tp158
S'E1b1b1a1a-V12'
p159
s(g5
I230
tp160
S'R1a1a1b-Z645'
p161
s(g23
I572
tp162
S'E1b1b1a1b-V13'
p163
s(g5
I61
tp164
S'R1b1a2a1a-L11'
p165
s(g2
I126
tp166
S'E1-P147'
p167
s(g12
I9
tp168
S'Q1a2a1a1-M3'
p169
s(g5
I329
tp170
S'O3-M122'
p171
s(g2
I72
tp172
S'CF-P143'
p173
s(S'b'
I166
tp174
S'GHIJK-M3658'
p175
s(g2
I167
tp176
S'DE-M145'
p177
s(g26
I417
tp178
S'R1b1a2a1a-L11'
p179
s(g12
I346
tp180
S'IJK-M523'
p181
s(S'b'
I103
tp182
S'H1+H2-M69'
p183
s(g12
I10
tp184
S'P-M45'
p185
s(S'b'
I165
tp186
S'G-M201'
p187
s(g5
I319
tp188
S'Q1a2a1a1-M3'
p189
s(g23
I585
tp190
S'E1b1b1a1a-V12'
p191
s(g2
I10
tp192
S'GHIJK-M3658'
p193
s(g2
I29
tp194
S'C3-M217'
p195
s(g5
I232
tp196
S'R1a1a1-M417'
p197
s(g5
I320
tp198
S'Q1a2a1-L54'
p199
s(g35
I231
tp200
S'O3-M122'
p201
s(S'b'
I175
tp202
S'E1b1b1a1a-V12'
p203
s(g35
I4
tp204
S'Q1a2a1a1-M3'
p205
s(g2
I4
tp206
S'H1-M52'
p207
s(S'c'
I255
tp208
S'I1-M253'
p209
s(g23
I17
tp210
S'HIJK-M578'
p211
s(g2
I9
tp212
S'G2-L156'
p213
s(S'c'
I161
tp214
S'J-M304'
p215
s(g35
I249
tp216
S'NO-M214'
p217
s(g23
I590
tp218
S'E1b1b1a1-M78'
p219
s(g2
I86
tp220
S'E1b1-P179'
p221
s(g35
I243
tp222
S'O-P186'
p223
s(g12
I267
tp224
S'NO-M214'
p225
s(g2
I127
tp226
S'E-M96'
p227
s(g12
I201
tp228
S'O1a-F589'
p229
s(g5
I330
tp230
S'K2-M526'
p231
s(g23
I600
tp232
S'E1-P147'
p233
s(S'c'
I256
tp234
S'I-M170'
p235
s(g5
I323
tp236
S'Q1-L232'
p237
s(S'b'
I4
tp238
S'T-M184'
p239
s(S'b'
I128
tp240
S'HIJK-M578'
p241
s(g12
I270
tp242
S'K2-M526'
p243
s(S'b'
I102
tp244
S'H1-M52'
p245
s(g26
I435
tp246
S'R1b-M343'
p247
s(g23
I599
tp248
S'E1a-M33'
p249
s(g5
I56
tp250
S'R2a-M124'
p251
s.